; Function Attrs: mustprogress nounwind uwtable
define internal fastcc void @_ZL36combineClassAndCategoryExtContainersN4llvm9StringRefES0_RNS_11raw_ostreamE(ptr %0, i64 %1, ptr %2, i64 %3, ptr noundef nonnull align 8 dereferenceable(48) %4) unnamed_addr #0 {
  %6 = icmp eq i64 %1, 0
  %7 = icmp eq i64 %3, 0
  br i1 %6, label %8, label %9

8:                                                ; preds = %5
  br i1 %7, label %_ZN4llvm11raw_ostreamlsEc.exit, label %.thread

9:                                                ; preds = %5
  br i1 %7, label %10, label %.thread

10:                                               ; preds = %9
  %11 = getelementptr inbounds nuw i8, ptr %4, i64 24
  %12 = load ptr, ptr %11, align 8
  %13 = getelementptr inbounds nuw i8, ptr %4, i64 32
  %14 = load ptr, ptr %13, align 8
  %15 = ptrtoint ptr %12 to i64
  %16 = ptrtoint ptr %14 to i64
  %17 = sub i64 %15, %16
  %18 = icmp ult i64 %17, 3
  br i1 %18, label %19, label %21

19:                                               ; preds = %10
  %20 = tail call noundef nonnull align 8 dereferenceable(48) ptr @_ZN4llvm11raw_ostream5writeEPKcm(ptr noundef nonnull align 8 dereferenceable(48) %4, ptr noundef nonnull @.str.6, i64 noundef 3) #14
  %.phi.trans.insert = getelementptr inbounds nuw i8, ptr %20, i64 32
  %.pre = load ptr, ptr %.phi.trans.insert, align 8
  br label %_ZN4llvm11raw_ostreamlsEPKc.exit

21:                                               ; preds = %10
  tail call void @llvm.memcpy.p0.p0.i64(ptr noundef nonnull align 1 dereferenceable(3) %14, ptr noundef nonnull align 1 dereferenceable(3) @.str.6, i64 3, i1 false)
  %22 = load ptr, ptr %13, align 8
  %23 = getelementptr inbounds nuw i8, ptr %22, i64 3
  store ptr %23, ptr %13, align 8
  br label %_ZN4llvm11raw_ostreamlsEPKc.exit

_ZN4llvm11raw_ostreamlsEPKc.exit:                 ; preds = %19, %21
  %24 = phi ptr [ %.pre, %19 ], [ %23, %21 ]
  %.0.i.i = phi ptr [ %20, %19 ], [ %4, %21 ]
  %25 = getelementptr inbounds nuw i8, ptr %.0.i.i, i64 24
  %26 = load ptr, ptr %25, align 8
  %27 = ptrtoint ptr %26 to i64
  %28 = ptrtoint ptr %24 to i64
  %29 = sub i64 %27, %28
  %30 = icmp ugt i64 %1, %29
  br i1 %30, label %31, label %33

31:                                               ; preds = %_ZN4llvm11raw_ostreamlsEPKc.exit
  %32 = tail call noundef nonnull align 8 dereferenceable(48) ptr @_ZN4llvm11raw_ostream5writeEPKcm(ptr noundef nonnull align 8 dereferenceable(48) %.0.i.i, ptr noundef %0, i64 noundef %1) #14
  %.phi.trans.insert37 = getelementptr inbounds nuw i8, ptr %32, i64 32
  %.pre38 = load ptr, ptr %.phi.trans.insert37, align 8
  br label %_ZN4llvm11raw_ostreamlsENS_9StringRefE.exit

33:                                               ; preds = %_ZN4llvm11raw_ostreamlsEPKc.exit
  %34 = getelementptr inbounds nuw i8, ptr %.0.i.i, i64 32
  tail call void @llvm.memcpy.p0.p0.i64(ptr align 1 %24, ptr align 1 %0, i64 %1, i1 false)
  %35 = load ptr, ptr %34, align 8
  %36 = getelementptr inbounds i8, ptr %35, i64 %1
  store ptr %36, ptr %34, align 8
  br label %_ZN4llvm11raw_ostreamlsENS_9StringRefE.exit

_ZN4llvm11raw_ostreamlsENS_9StringRefE.exit:      ; preds = %31, %33
  %37 = phi ptr [ %.pre38, %31 ], [ %36, %33 ]
  %.0.i = phi ptr [ %32, %31 ], [ %.0.i.i, %33 ]
  %38 = getelementptr inbounds nuw i8, ptr %.0.i, i64 24
  %39 = load ptr, ptr %38, align 8
  %.not.i11 = icmp ult ptr %37, %39
  br i1 %.not.i11, label %42, label %40

40:                                               ; preds = %_ZN4llvm11raw_ostreamlsENS_9StringRefE.exit
  %41 = tail call noundef nonnull align 8 dereferenceable(48) ptr @_ZN4llvm11raw_ostream5writeEh(ptr noundef nonnull align 8 dereferenceable(48) %.0.i, i8 noundef zeroext 64) #14
  br label %_ZN4llvm11raw_ostreamlsEc.exit

42:                                               ; preds = %_ZN4llvm11raw_ostreamlsENS_9StringRefE.exit
  %43 = getelementptr inbounds nuw i8, ptr %.0.i, i64 32
  %44 = getelementptr inbounds nuw i8, ptr %37, i64 1
  store ptr %44, ptr %43, align 8
  store i8 64, ptr %37, align 1
  br label %_ZN4llvm11raw_ostreamlsEc.exit

.thread:                                          ; preds = %8, %9
  %45 = getelementptr inbounds nuw i8, ptr %4, i64 24
  %46 = load ptr, ptr %45, align 8
  %47 = getelementptr inbounds nuw i8, ptr %4, i64 32
  %48 = load ptr, ptr %47, align 8
  %49 = ptrtoint ptr %46 to i64
  %50 = ptrtoint ptr %48 to i64
  %51 = sub i64 %49, %50
  %52 = icmp ult i64 %51, 4
  br i1 %52, label %53, label %55

53:                                               ; preds = %.thread
  %54 = tail call noundef nonnull align 8 dereferenceable(48) ptr @_ZN4llvm11raw_ostream5writeEPKcm(ptr noundef nonnull align 8 dereferenceable(48) %4, ptr noundef nonnull @.str.10, i64 noundef 4) #14
  %.phi.trans.insert39 = getelementptr inbounds nuw i8, ptr %54, i64 32
  %.pre40 = load ptr, ptr %.phi.trans.insert39, align 8
  br label %_ZN4llvm11raw_ostreamlsEPKc.exit15

55:                                               ; preds = %.thread
  store i32 1078805312, ptr %48, align 1
  %56 = load ptr, ptr %47, align 8
  %57 = getelementptr inbounds nuw i8, ptr %56, i64 4
  store ptr %57, ptr %47, align 8
  br label %_ZN4llvm11raw_ostreamlsEPKc.exit15

_ZN4llvm11raw_ostreamlsEPKc.exit15:               ; preds = %53, %55
  %58 = phi ptr [ %.pre40, %53 ], [ %57, %55 ]
  %.0.i.i14 = phi ptr [ %54, %53 ], [ %4, %55 ]
  %59 = getelementptr inbounds nuw i8, ptr %.0.i.i14, i64 24
  %60 = load ptr, ptr %59, align 8
  %61 = ptrtoint ptr %60 to i64
  %62 = ptrtoint ptr %58 to i64
  %63 = sub i64 %61, %62
  %64 = icmp ugt i64 %3, %63
  br i1 %64, label %65, label %67

65:                                               ; preds = %_ZN4llvm11raw_ostreamlsEPKc.exit15
  %66 = tail call noundef nonnull align 8 dereferenceable(48) ptr @_ZN4llvm11raw_ostream5writeEPKcm(ptr noundef nonnull align 8 dereferenceable(48) %.0.i.i14, ptr noundef %2, i64 noundef %3) #14
  %.phi.trans.insert41 = getelementptr inbounds nuw i8, ptr %66, i64 32
  %.pre42 = load ptr, ptr %.phi.trans.insert41, align 8
  br label %_ZN4llvm11raw_ostreamlsENS_9StringRefE.exit18

67:                                               ; preds = %_ZN4llvm11raw_ostreamlsEPKc.exit15
  %68 = getelementptr inbounds nuw i8, ptr %.0.i.i14, i64 32
  tail call void @llvm.memcpy.p0.p0.i64(ptr align 1 %58, ptr align 1 %2, i64 %3, i1 false)
  %69 = load ptr, ptr %68, align 8
  %70 = getelementptr inbounds i8, ptr %69, i64 %3
  store ptr %70, ptr %68, align 8
  br label %_ZN4llvm11raw_ostreamlsENS_9StringRefE.exit18

_ZN4llvm11raw_ostreamlsENS_9StringRefE.exit18:    ; preds = %65, %67
  %71 = phi ptr [ %.pre42, %65 ], [ %70, %67 ]
  %.0.i17 = phi ptr [ %66, %65 ], [ %.0.i.i14, %67 ]
  %72 = getelementptr inbounds nuw i8, ptr %.0.i17, i64 24
  %73 = load ptr, ptr %72, align 8
  %.not.i19 = icmp ult ptr %71, %73
  br i1 %.not.i19, label %76, label %74

74:                                               ; preds = %_ZN4llvm11raw_ostreamlsENS_9StringRefE.exit18
  %75 = tail call noundef nonnull align 8 dereferenceable(48) ptr @_ZN4llvm11raw_ostream5writeEh(ptr noundef nonnull align 8 dereferenceable(48) %.0.i17, i8 noundef zeroext 64) #14
  br label %_ZN4llvm11raw_ostreamlsEc.exit21

76:                                               ; preds = %_ZN4llvm11raw_ostreamlsENS_9StringRefE.exit18
  %77 = getelementptr inbounds nuw i8, ptr %.0.i17, i64 32
  %78 = getelementptr inbounds nuw i8, ptr %71, i64 1
  store ptr %78, ptr %77, align 8
  store i8 64, ptr %71, align 1
  br label %_ZN4llvm11raw_ostreamlsEc.exit21

_ZN4llvm11raw_ostreamlsEc.exit21:                 ; preds = %74, %76
  %.not.i.i = icmp eq i64 %1, %3
  br i1 %.not.i.i, label %_ZN4llvmneENS_9StringRefES0_.exit, label %_ZN4llvmneENS_9StringRefES0_.exit.thread

_ZN4llvmneENS_9StringRefES0_.exit:                ; preds = %_ZN4llvm11raw_ostreamlsEc.exit21
  %bcmp.i.i = tail call i32 @bcmp(ptr %0, ptr %2, i64 %1)
  %.not = icmp eq i32 %bcmp.i.i, 0
  br i1 %.not, label %_ZN4llvm11raw_ostreamlsEc.exit, label %_ZN4llvmneENS_9StringRefES0_.exit.thread

_ZN4llvmneENS_9StringRefES0_.exit.thread:         ; preds = %_ZN4llvm11raw_ostreamlsEc.exit21, %_ZN4llvmneENS_9StringRefES0_.exit
  %79 = load ptr, ptr %45, align 8
  %80 = load ptr, ptr %47, align 8
  %81 = ptrtoint ptr %79 to i64
  %82 = ptrtoint ptr %80 to i64
  %83 = sub i64 %81, %82
  %84 = icmp ugt i64 %1, %83
  br i1 %84, label %85, label %87

85:                                               ; preds = %_ZN4llvmneENS_9StringRefES0_.exit.thread
  %86 = tail call noundef nonnull align 8 dereferenceable(48) ptr @_ZN4llvm11raw_ostream5writeEPKcm(ptr noundef nonnull align 8 dereferenceable(48) %4, ptr noundef %0, i64 noundef %1) #14
  %.phi.trans.insert43 = getelementptr inbounds nuw i8, ptr %86, i64 32
  %.pre44 = load ptr, ptr %.phi.trans.insert43, align 8
  br label %_ZN4llvm11raw_ostreamlsENS_9StringRefE.exit25

87:                                               ; preds = %_ZN4llvmneENS_9StringRefES0_.exit.thread
  br i1 %6, label %_ZN4llvm11raw_ostreamlsENS_9StringRefE.exit25, label %88

88:                                               ; preds = %87
  tail call void @llvm.memcpy.p0.p0.i64(ptr align 1 %80, ptr align 1 %0, i64 %1, i1 false)
  %89 = load ptr, ptr %47, align 8
  %90 = getelementptr inbounds i8, ptr %89, i64 %1
  store ptr %90, ptr %47, align 8
  br label %_ZN4llvm11raw_ostreamlsENS_9StringRefE.exit25

_ZN4llvm11raw_ostreamlsENS_9StringRefE.exit25:    ; preds = %85, %87, %88
  %91 = phi ptr [ %.pre44, %85 ], [ %90, %88 ], [ %80, %87 ]
  %.0.i24 = phi ptr [ %86, %85 ], [ %4, %88 ], [ %4, %87 ]
  %92 = getelementptr inbounds nuw i8, ptr %.0.i24, i64 24
  %93 = load ptr, ptr %92, align 8
  %.not.i26 = icmp ult ptr %91, %93
  br i1 %.not.i26, label %96, label %94

94:                                               ; preds = %_ZN4llvm11raw_ostreamlsENS_9StringRefE.exit25
  %95 = tail call noundef nonnull align 8 dereferenceable(48) ptr @_ZN4llvm11raw_ostream5writeEh(ptr noundef nonnull align 8 dereferenceable(48) %.0.i24, i8 noundef zeroext 64) #14
  br label %_ZN4llvm11raw_ostreamlsEc.exit

96:                                               ; preds = %_ZN4llvm11raw_ostreamlsENS_9StringRefE.exit25
  %97 = getelementptr inbounds nuw i8, ptr %.0.i24, i64 32
  %98 = getelementptr inbounds nuw i8, ptr %91, i64 1
  store ptr %98, ptr %97, align 8
  store i8 64, ptr %91, align 1
  br label %_ZN4llvm11raw_ostreamlsEc.exit

_ZN4llvm11raw_ostreamlsEc.exit:                   ; preds = %96, %94, %42, %40, %8, %_ZN4llvmneENS_9StringRefES0_.exit
  ret void
}